target datalayout = "e-m:e-p270:32:32-p271:32:32-p272:64:64-i64:64-i128:128-f80:128-n8:16:32:64-S128"
target triple = "x86_64-pc-linux-gnu"

%"class.gmx::ArrayRef" = type { %"struct.gmx::ArrayRefIter", %"struct.gmx::ArrayRefIter" }
%"struct.gmx::ArrayRefIter" = type { ptr }
%union.t_iparams = type { %struct.anon.21 }
%struct.anon.21 = type { [3 x float], [3 x float], [3 x float], [3 x float] }
%struct.anon.17 = type { float, float, i32, float, float }

; Function Attrs: mustprogress nounwind uwtable
define linkonce_odr noundef float @_ZSt3cosf(float noundef %0) #3 comdat {
  %2 = alloca float, align 4
  store float %0, ptr %2, align 4
  %3 = load float, ptr %2, align 4
  %4 = call float @cosf(float noundef %3) #4
  ret float %4
}

; Function Attrs: mustprogress nounwind uwtable
define linkonce_odr noundef float @_ZSt3sinf(float noundef %0) #3 comdat {
  %2 = alloca float, align 4
  store float %0, ptr %2, align 4
  %3 = load float, ptr %2, align 4
  %4 = call float @sinf(float noundef %3) #4
  ret float %4
}

; Function Attrs: mustprogress nounwind uwtable
define internal noundef float @_ZN12_GLOBAL__N_17dopdihsIL18BondedKernelFlavor2EEEfffffiffPfS2_(float noundef %0, float noundef %1, float noundef %2, float noundef %3, i32 noundef %4, float noundef %5, float noundef %6, ptr noundef %7, ptr noundef %8) #3 {
  %10 = alloca float, align 4
  %11 = alloca float, align 4
  %12 = alloca float, align 4
  %13 = alloca float, align 4
  %14 = alloca i32, align 4
  %15 = alloca float, align 4
  %16 = alloca float, align 4
  %17 = alloca ptr, align 8
  %18 = alloca ptr, align 8
  %19 = alloca float, align 4
  %20 = alloca float, align 4
  %21 = alloca float, align 4
  %22 = alloca float, align 4
  %23 = alloca float, align 4
  %24 = alloca float, align 4
  %25 = alloca float, align 4
  %26 = alloca float, align 4
  store float %0, ptr %10, align 4
  store float %1, ptr %11, align 4
  store float %2, ptr %12, align 4
  store float %3, ptr %13, align 4
  store i32 %4, ptr %14, align 4
  store float %5, ptr %15, align 4
  store float %6, ptr %16, align 4
  store ptr %7, ptr %17, align 8
  store ptr %8, ptr %18, align 8
  %27 = load float, ptr %16, align 4
  %28 = fpext float %27 to double
  %29 = fsub double 1.000000e+00, %28
  %30 = fptrunc double %29 to float
  store float %30, ptr %19, align 4
  %31 = load float, ptr %19, align 4
  %32 = load float, ptr %12, align 4
  %33 = load float, ptr %16, align 4
  %34 = load float, ptr %13, align 4
  %35 = fmul float %33, %34
  %36 = call float @llvm.fmuladd.f32(float %31, float %32, float %35)
  %37 = fpext float %36 to double
  %38 = fmul double %37, 0x3F91DF46A2529D39
  %39 = fptrunc double %38 to float
  store float %39, ptr %20, align 4
  %40 = load float, ptr %13, align 4
  %41 = load float, ptr %12, align 4
  %42 = fsub float %40, %41
  %43 = fpext float %42 to double
  %44 = fmul double %43, 0x3F91DF46A2529D39
  %45 = fptrunc double %44 to float
  store float %45, ptr %21, align 4
  %46 = load float, ptr %19, align 4
  %47 = load float, ptr %10, align 4
  %48 = load float, ptr %16, align 4
  %49 = load float, ptr %11, align 4
  %50 = fmul float %48, %49
  %51 = call float @llvm.fmuladd.f32(float %46, float %47, float %50)
  store float %51, ptr %22, align 4
  %52 = load i32, ptr %14, align 4
  %53 = sitofp i32 %52 to float
  %54 = load float, ptr %15, align 4
  %55 = load float, ptr %20, align 4
  %56 = fneg float %55
  %57 = call float @llvm.fmuladd.f32(float %53, float %54, float %56)
  store float %57, ptr %23, align 4
  %58 = load float, ptr %23, align 4
  %59 = call noundef float @_ZSt3sinf(float noundef %58)
  store float %59, ptr %24, align 4
  %60 = load float, ptr %22, align 4
  %61 = fneg float %60
  %62 = load i32, ptr %14, align 4
  %63 = sitofp i32 %62 to float
  %64 = fmul float %61, %63
  %65 = load float, ptr %24, align 4
  %66 = fmul float %64, %65
  store float %66, ptr %25, align 4
  %67 = load float, ptr %23, align 4
  %68 = call noundef float @_ZSt3cosf(float noundef %67)
  %69 = fadd float 1.000000e+00, %68
  store float %69, ptr %26, align 4
  %70 = load float, ptr %22, align 4
  %71 = load float, ptr %26, align 4
  %72 = load ptr, ptr %17, align 8
  %73 = load float, ptr %72, align 4
  %74 = call float @llvm.fmuladd.f32(float %70, float %71, float %73)
  store float %74, ptr %72, align 4
  %75 = load float, ptr %11, align 4
  %76 = load float, ptr %10, align 4
  %77 = fsub float %75, %76
  %78 = load float, ptr %26, align 4
  %79 = load float, ptr %22, align 4
  %80 = load float, ptr %21, align 4
  %81 = fmul float %79, %80
  %82 = load float, ptr %24, align 4
  %83 = fmul float %81, %82
  %84 = call float @llvm.fmuladd.f32(float %77, float %78, float %83)
  %85 = load ptr, ptr %18, align 8
  %86 = load float, ptr %85, align 4
  %87 = fadd float %86, %84
  store float %87, ptr %85, align 4
  %88 = load float, ptr %25, align 4
  ret float %88
}

; Function Attrs: mustprogress uwtable
define internal noundef float @_ZN12_GLOBAL__N_15pdihsIL18BondedKernelFlavor2EEENSt9enable_ifIXooneT_LS1_0EntLi1EEfE4typeEiPKiPK9t_iparamsPA3_KfPA4_fPA3_fPK5t_pbcfPfN3gmx8ArrayRefISA_EEP8t_fcdataP12t_disresdataP12t_oriresdataPi(i32 noundef %0, ptr noundef %1, ptr noundef %2, ptr noundef %3, ptr noundef %4, ptr noundef %5, ptr noundef %6, float noundef %7, ptr noundef %8, ptr noundef byval(%"class.gmx::ArrayRef") align 8 %9, ptr noundef %10, ptr noundef %11, ptr noundef %12, ptr noundef %13) #2 {
  %15 = alloca i32, align 4
  %16 = alloca ptr, align 8
  %17 = alloca ptr, align 8
  %18 = alloca ptr, align 8
  %19 = alloca ptr, align 8
  %20 = alloca ptr, align 8
  %21 = alloca ptr, align 8
  %22 = alloca float, align 4
  %23 = alloca ptr, align 8
  %24 = alloca ptr, align 8
  %25 = alloca ptr, align 8
  %26 = alloca ptr, align 8
  %27 = alloca ptr, align 8
  %28 = alloca i32, align 4
  %29 = alloca i32, align 4
  %30 = alloca i32, align 4
  %31 = alloca [3 x float], align 4
  %32 = alloca [3 x float], align 4
  %33 = alloca [3 x float], align 4
  %34 = alloca [3 x float], align 4
  %35 = alloca [3 x float], align 4
  %36 = alloca float, align 4
  %37 = alloca i32, align 4
  %38 = alloca i32, align 4
  %39 = alloca i32, align 4
  %40 = alloca i32, align 4
  %41 = alloca i32, align 4
  %42 = alloca float, align 4
  %43 = alloca float, align 4
  %44 = alloca i32, align 4
  store i32 %0, ptr %15, align 4
  store ptr %1, ptr %16, align 8
  store ptr %2, ptr %17, align 8
  store ptr %3, ptr %18, align 8
  store ptr %4, ptr %19, align 8
  store ptr %5, ptr %20, align 8
  store ptr %6, ptr %21, align 8
  store float %7, ptr %22, align 4
  store ptr %8, ptr %23, align 8
  store ptr %10, ptr %24, align 8
  store ptr %11, ptr %25, align 8
  store ptr %12, ptr %26, align 8
  store ptr %13, ptr %27, align 8
  store float 0.000000e+00, ptr %36, align 4
  store i32 0, ptr %37, align 4
  br label %45

45:                                               ; preds = %187, %14
  %46 = load i32, ptr %37, align 4
  %47 = load i32, ptr %15, align 4
  %48 = icmp slt i32 %46, %47
  br i1 %48, label %49, label %205

49:                                               ; preds = %45
  %50 = load ptr, ptr %16, align 8
  %51 = load i32, ptr %37, align 4
  %52 = add nsw i32 %51, 1
  %53 = sext i32 %52 to i64
  %54 = getelementptr inbounds i32, ptr %50, i64 %53
  %55 = load i32, ptr %54, align 4
  store i32 %55, ptr %38, align 4
  %56 = load ptr, ptr %16, align 8
  %57 = load i32, ptr %37, align 4
  %58 = add nsw i32 %57, 2
  %59 = sext i32 %58 to i64
  %60 = getelementptr inbounds i32, ptr %56, i64 %59
  %61 = load i32, ptr %60, align 4
  store i32 %61, ptr %39, align 4
  %62 = load ptr, ptr %16, align 8
  %63 = load i32, ptr %37, align 4
  %64 = add nsw i32 %63, 3
  %65 = sext i32 %64 to i64
  %66 = getelementptr inbounds i32, ptr %62, i64 %65
  %67 = load i32, ptr %66, align 4
  store i32 %67, ptr %40, align 4
  %68 = load ptr, ptr %16, align 8
  %69 = load i32, ptr %37, align 4
  %70 = add nsw i32 %69, 4
  %71 = sext i32 %70 to i64
  %72 = getelementptr inbounds i32, ptr %68, i64 %71
  %73 = load i32, ptr %72, align 4
  store i32 %73, ptr %41, align 4
  %74 = load ptr, ptr %18, align 8
  %75 = load i32, ptr %38, align 4
  %76 = sext i32 %75 to i64
  %77 = getelementptr inbounds [3 x float], ptr %74, i64 %76
  %78 = getelementptr inbounds [3 x float], ptr %77, i64 0, i64 0
  %79 = load ptr, ptr %18, align 8
  %80 = load i32, ptr %39, align 4
  %81 = sext i32 %80 to i64
  %82 = getelementptr inbounds [3 x float], ptr %79, i64 %81
  %83 = getelementptr inbounds [3 x float], ptr %82, i64 0, i64 0
  %84 = load ptr, ptr %18, align 8
  %85 = load i32, ptr %40, align 4
  %86 = sext i32 %85 to i64
  %87 = getelementptr inbounds [3 x float], ptr %84, i64 %86
  %88 = getelementptr inbounds [3 x float], ptr %87, i64 0, i64 0
  %89 = load ptr, ptr %18, align 8
  %90 = load i32, ptr %41, align 4
  %91 = sext i32 %90 to i64
  %92 = getelementptr inbounds [3 x float], ptr %89, i64 %91
  %93 = getelementptr inbounds [3 x float], ptr %92, i64 0, i64 0
  %94 = load ptr, ptr %21, align 8
  %95 = getelementptr inbounds [3 x float], ptr %31, i64 0, i64 0
  %96 = getelementptr inbounds [3 x float], ptr %32, i64 0, i64 0
  %97 = getelementptr inbounds [3 x float], ptr %33, i64 0, i64 0
  %98 = getelementptr inbounds [3 x float], ptr %34, i64 0, i64 0
  %99 = getelementptr inbounds [3 x float], ptr %35, i64 0, i64 0
  %100 = call noundef float @_Z9dih_anglePKfS0_S0_S0_PK5t_pbcPfS4_S4_S4_S4_PiS5_S5_(ptr noundef %78, ptr noundef %83, ptr noundef %88, ptr noundef %93, ptr noundef %94, ptr noundef %95, ptr noundef %96, ptr noundef %97, ptr noundef %98, ptr noundef %99, ptr noundef %28, ptr noundef %29, ptr noundef %30)
  store float %100, ptr %42, align 4
  store float 0.000000e+00, ptr %43, align 4
  br label %101

101:                                              ; preds = %185, %49
  %102 = load ptr, ptr %16, align 8
  %103 = load i32, ptr %37, align 4
  %104 = sext i32 %103 to i64
  %105 = getelementptr inbounds i32, ptr %102, i64 %104
  %106 = load i32, ptr %105, align 4
  store i32 %106, ptr %44, align 4
  %107 = load ptr, ptr %17, align 8
  %108 = load i32, ptr %44, align 4
  %109 = sext i32 %108 to i64
  %110 = getelementptr inbounds %union.t_iparams, ptr %107, i64 %109
  %111 = getelementptr inbounds %struct.anon.17, ptr %110, i32 0, i32 1
  %112 = load float, ptr %111, align 4
  %113 = load ptr, ptr %17, align 8
  %114 = load i32, ptr %44, align 4
  %115 = sext i32 %114 to i64
  %116 = getelementptr inbounds %union.t_iparams, ptr %113, i64 %115
  %117 = getelementptr inbounds %struct.anon.17, ptr %116, i32 0, i32 4
  %118 = load float, ptr %117, align 4
  %119 = load ptr, ptr %17, align 8
  %120 = load i32, ptr %44, align 4
  %121 = sext i32 %120 to i64
  %122 = getelementptr inbounds %union.t_iparams, ptr %119, i64 %121
  %123 = getelementptr inbounds %struct.anon.17, ptr %122, i32 0, i32 0
  %124 = load float, ptr %123, align 4
  %125 = load ptr, ptr %17, align 8
  %126 = load i32, ptr %44, align 4
  %127 = sext i32 %126 to i64
  %128 = getelementptr inbounds %union.t_iparams, ptr %125, i64 %127
  %129 = getelementptr inbounds %struct.anon.17, ptr %128, i32 0, i32 3
  %130 = load float, ptr %129, align 4
  %131 = load ptr, ptr %17, align 8
  %132 = load i32, ptr %44, align 4
  %133 = sext i32 %132 to i64
  %134 = getelementptr inbounds %union.t_iparams, ptr %131, i64 %133
  %135 = getelementptr inbounds %struct.anon.17, ptr %134, i32 0, i32 2
  %136 = load i32, ptr %135, align 4
  %137 = load float, ptr %42, align 4
  %138 = load float, ptr %22, align 4
  %139 = load ptr, ptr %23, align 8
  %140 = call noundef float @_ZN12_GLOBAL__N_17dopdihsIL18BondedKernelFlavor2EEEfffffiffPfS2_(float noundef %112, float noundef %118, float noundef %124, float noundef %130, i32 noundef %136, float noundef %137, float noundef %138, ptr noundef %36, ptr noundef %139)
  %141 = load float, ptr %43, align 4
  %142 = fadd float %141, %140
  store float %142, ptr %43, align 4
  %143 = load i32, ptr %37, align 4
  %144 = add nsw i32 %143, 5
  store i32 %144, ptr %37, align 4
  br label %145

145:                                              ; preds = %101
  %146 = load i32, ptr %37, align 4
  %147 = load i32, ptr %15, align 4
  %148 = icmp slt i32 %146, %147
  br i1 %148, label %149, label %185

149:                                              ; preds = %145
  %150 = load ptr, ptr %16, align 8
  %151 = load i32, ptr %37, align 4
  %152 = add nsw i32 %151, 1
  %153 = sext i32 %152 to i64
  %154 = getelementptr inbounds i32, ptr %150, i64 %153
  %155 = load i32, ptr %154, align 4
  %156 = load i32, ptr %38, align 4
  %157 = icmp eq i32 %155, %156
  br i1 %157, label %158, label %185

158:                                              ; preds = %149
  %159 = load ptr, ptr %16, align 8
  %160 = load i32, ptr %37, align 4
  %161 = add nsw i32 %160, 2
  %162 = sext i32 %161 to i64
  %163 = getelementptr inbounds i32, ptr %159, i64 %162
  %164 = load i32, ptr %163, align 4
  %165 = load i32, ptr %39, align 4
  %166 = icmp eq i32 %164, %165
  br i1 %166, label %167, label %185

167:                                              ; preds = %158
  %168 = load ptr, ptr %16, align 8
  %169 = load i32, ptr %37, align 4
  %170 = add nsw i32 %169, 3
  %171 = sext i32 %170 to i64
  %172 = getelementptr inbounds i32, ptr %168, i64 %171
  %173 = load i32, ptr %172, align 4
  %174 = load i32, ptr %40, align 4
  %175 = icmp eq i32 %173, %174
  br i1 %175, label %176, label %185

176:                                              ; preds = %167
  %177 = load ptr, ptr %16, align 8
  %178 = load i32, ptr %37, align 4
  %179 = add nsw i32 %178, 4
  %180 = sext i32 %179 to i64
  %181 = getelementptr inbounds i32, ptr %177, i64 %180
  %182 = load i32, ptr %181, align 4
  %183 = load i32, ptr %41, align 4
  %184 = icmp eq i32 %182, %183
  br label %185

185:                                              ; preds = %176, %167, %158, %149, %145
  %186 = phi i1 [ false, %167 ], [ false, %158 ], [ false, %149 ], [ false, %145 ], [ %184, %176 ]
  br i1 %186, label %101, label %187, !llvm.loop !139

187:                                              ; preds = %185
  %188 = load i32, ptr %38, align 4
  %189 = load i32, ptr %39, align 4
  %190 = load i32, ptr %40, align 4
  %191 = load i32, ptr %41, align 4
  %192 = load float, ptr %43, align 4
  %193 = getelementptr inbounds [3 x float], ptr %31, i64 0, i64 0
  %194 = getelementptr inbounds [3 x float], ptr %32, i64 0, i64 0
  %195 = getelementptr inbounds [3 x float], ptr %33, i64 0, i64 0
  %196 = getelementptr inbounds [3 x float], ptr %34, i64 0, i64 0
  %197 = getelementptr inbounds [3 x float], ptr %35, i64 0, i64 0
  %198 = load ptr, ptr %19, align 8
  %199 = load ptr, ptr %20, align 8
  %200 = load ptr, ptr %21, align 8
  %201 = load ptr, ptr %18, align 8
  %202 = load i32, ptr %28, align 4
  %203 = load i32, ptr %29, align 4
  %204 = load i32, ptr %30, align 4
  call void @_Z10do_dih_fupIL18BondedKernelFlavor2EEviiiifPfS1_S1_S1_S1_PA4_fPA3_fPK5t_pbcPA3_Kfiii(i32 noundef %188, i32 noundef %189, i32 noundef %190, i32 noundef %191, float noundef %192, ptr noundef %193, ptr noundef %194, ptr noundef %195, ptr noundef %196, ptr noundef %197, ptr noundef %198, ptr noundef %199, ptr noundef %200, ptr noundef %201, i32 noundef %202, i32 noundef %203, i32 noundef %204)
  br label %45, !llvm.loop !140

205:                                              ; preds = %45
  %206 = load float, ptr %36, align 4
  ret float %206
}